target datalayout = "e-m:e-p270:32:32-p271:32:32-p272:64:64-i64:64-i128:128-f80:128-n8:16:32:64-S128"
target triple = "x86_64-pc-linux-gnu"

@_ZL21latest_compilation_id = internal global i32 0, align 4
@.str.127 = private unnamed_addr constant [3 x i8] c"%c\00", align 1
@.str.165 = private unnamed_addr constant [2 x i8] c" \00", align 1

; Function Attrs: mustprogress nounwind uwtable
define hidden void @_ZN13CodeHeapState16print_age_singleEP12outputStreami(ptr noundef %0, i32 noundef %1) #1 align 2 {
  %3 = alloca ptr, align 8
  %4 = alloca i32, align 4
  %5 = alloca i32, align 4
  %6 = alloca i32, align 4
  store ptr %0, ptr %3, align 8
  store i32 %1, ptr %4, align 4
  store i32 0, ptr %5, align 4
  store i32 256, ptr %6, align 4
  %7 = load i32, ptr %4, align 4
  %8 = icmp sgt i32 %7, 0
  br i1 %8, label %9, label %34

9:                                                ; preds = %2
  br label %10

10:                                               ; preds = %23, %9
  %11 = load i32, ptr %6, align 4
  %12 = icmp sgt i32 %11, 0
  br i1 %12, label %13, label %21

13:                                               ; preds = %10
  %14 = load i32, ptr @_ZL21latest_compilation_id, align 4
  %15 = load i32, ptr %4, align 4
  %16 = sub nsw i32 %14, %15
  %17 = load i32, ptr @_ZL21latest_compilation_id, align 4
  %18 = load i32, ptr %6, align 4
  %19 = sdiv i32 %17, %18
  %20 = icmp sgt i32 %16, %19
  br label %21

21:                                               ; preds = %13, %10
  %22 = phi i1 [ false, %10 ], [ %20, %13 ]
  br i1 %22, label %23, label %28

23:                                               ; preds = %21
  %24 = load i32, ptr %6, align 4
  %25 = sdiv i32 %24, 2
  store i32 %25, ptr %6, align 4
  %26 = load i32, ptr %5, align 4
  %27 = add i32 %26, 1
  store i32 %27, ptr %5, align 4
  br label %10, !llvm.loop !64

28:                                               ; preds = %21
  %29 = load ptr, ptr %3, align 8
  %30 = load i32, ptr %5, align 4
  %31 = add i32 48, %30
  %32 = trunc i32 %31 to i8
  %33 = sext i8 %32 to i32
  call void (ptr, ptr, ...) @_ZN12outputStream5printEPKcz(ptr noundef nonnull align 8 dereferenceable(56) %29, ptr noundef @.str.127, i32 noundef %33)
  br label %36

34:                                               ; preds = %2
  %35 = load ptr, ptr %3, align 8
  call void (ptr, ptr, ...) @_ZN12outputStream5printEPKcz(ptr noundef nonnull align 8 dereferenceable(56) %35, ptr noundef @.str.165)
  br label %36

36:                                               ; preds = %34, %28
  ret void
}