; Function Attrs: mustprogress nounwind uwtable
define hidden void @_ZN13CodeHeapState16print_age_singleEP12outputStreami(ptr noundef %0, i32 noundef %1) local_unnamed_addr #1 align 2 {
  %3 = icmp sgt i32 %1, 0
  br i1 %3, label %.preheader, label %14

.preheader:                                       ; preds = %2
  %4 = load i32, ptr @_ZL21latest_compilation_id, align 4
  %5 = sub nsw i32 %4, %1
  br label %6

6:                                                ; preds = %.preheader, %9
  %.010 = phi i32 [ 256, %.preheader ], [ %10, %9 ]
  %.089 = phi i32 [ 0, %.preheader ], [ %11, %9 ]
  %7 = sdiv i32 %4, %.010
  %8 = icmp sgt i32 %5, %7
  br i1 %8, label %9, label %.critedge

9:                                                ; preds = %6
  %10 = lshr i32 %.010, 1
  %11 = add nuw nsw i32 %.089, 1
  %exitcond = icmp eq i32 %11, 9
  br i1 %exitcond, label %.critedge, label %6, !llvm.loop !58

.critedge:                                        ; preds = %9, %6
  %.08.lcssa = phi i32 [ 9, %9 ], [ %.089, %6 ]
  %12 = shl i32 %.08.lcssa, 24
  %sext = add i32 %12, 805306368
  %13 = ashr exact i32 %sext, 24
  tail call void (ptr, ptr, ...) @_ZN12outputStream5printEPKcz(ptr noundef nonnull align 8 dereferenceable(56) %0, ptr noundef nonnull @.str.127, i32 noundef %13) #12
  br label %15

14:                                               ; preds = %2
  tail call void (ptr, ptr, ...) @_ZN12outputStream5printEPKcz(ptr noundef nonnull align 8 dereferenceable(56) %0, ptr noundef nonnull @.str.165) #12
  br label %15

15:                                               ; preds = %14, %.critedge
  ret void
}